target datalayout = "e-m:e-p270:32:32-p271:32:32-p272:64:64-i64:64-i128:128-f80:128-n8:16:32:64-S128"
target triple = "x86_64-unknown-linux-gnu"

%class.b2Fixture = type { float, ptr, ptr, ptr, float, float, float, ptr, i32, %struct.b2Filter, i8, %struct.b2FixtureUserData }
%struct.b2Filter = type { i16, i16, i16 }
%struct.b2FixtureUserData = type { i64 }
%class.b2Contact = type { ptr, i32, ptr, ptr, %struct.b2ContactEdge, %struct.b2ContactEdge, ptr, ptr, i32, i32, %struct.b2Manifold, i32, float, float, float, float, float }
%struct.b2ContactEdge = type { ptr, ptr, ptr, ptr }
%struct.b2Manifold = type { [2 x %struct.b2ManifoldPoint], %struct.b2Vec2, %struct.b2Vec2, i32, i32 }
%struct.b2ManifoldPoint = type { %struct.b2Vec2, float, float, %union.b2ContactID }
%union.b2ContactID = type { i32 }
%struct.b2Vec2 = type { float, float }

@_ZTV9b2Contact = linkonce_odr unnamed_addr constant { [5 x ptr] } { [5 x ptr] [ptr null, ptr @_ZTI9b2Contact, ptr @__cxa_pure_virtual, ptr @_ZN9b2ContactD2Ev, ptr @_ZN9b2ContactD0Ev] }, comdat, align 8

; Function Attrs: mustprogress nounwind uwtable
define linkonce_odr hidden noundef float @_Z25b2MixRestitutionThresholdff(float noundef %threshold1, float noundef %threshold2) #1 comdat {
entry:
  %threshold1.addr = alloca float, align 4
  %threshold2.addr = alloca float, align 4
  store float %threshold1, ptr %threshold1.addr, align 4
  store float %threshold2, ptr %threshold2.addr, align 4
  %0 = load float, ptr %threshold1.addr, align 4
  %1 = load float, ptr %threshold2.addr, align 4
  %cmp = fcmp olt float %0, %1
  br i1 %cmp, label %cond.true, label %cond.false

cond.true:                                        ; preds = %entry
  %2 = load float, ptr %threshold1.addr, align 4
  br label %cond.end

cond.false:                                       ; preds = %entry
  %3 = load float, ptr %threshold2.addr, align 4
  br label %cond.end

cond.end:                                         ; preds = %cond.false, %cond.true
  %cond = phi float [ %2, %cond.true ], [ %3, %cond.false ]
  ret float %cond
}

; Function Attrs: mustprogress nounwind uwtable
define linkonce_odr hidden noundef float @_Z16b2MixRestitutionff(float noundef %restitution1, float noundef %restitution2) #1 comdat {
entry:
  %restitution1.addr = alloca float, align 4
  %restitution2.addr = alloca float, align 4
  store float %restitution1, ptr %restitution1.addr, align 4
  store float %restitution2, ptr %restitution2.addr, align 4
  %0 = load float, ptr %restitution1.addr, align 4
  %1 = load float, ptr %restitution2.addr, align 4
  %cmp = fcmp ogt float %0, %1
  br i1 %cmp, label %cond.true, label %cond.false

cond.true:                                        ; preds = %entry
  %2 = load float, ptr %restitution1.addr, align 4
  br label %cond.end

cond.false:                                       ; preds = %entry
  %3 = load float, ptr %restitution2.addr, align 4
  br label %cond.end

cond.end:                                         ; preds = %cond.false, %cond.true
  %cond = phi float [ %2, %cond.true ], [ %3, %cond.false ]
  ret float %cond
}

; Function Attrs: mustprogress nounwind uwtable
define linkonce_odr hidden noundef float @_Z13b2MixFrictionff(float noundef %friction1, float noundef %friction2) #1 comdat {
entry:
  %friction1.addr = alloca float, align 4
  %friction2.addr = alloca float, align 4
  store float %friction1, ptr %friction1.addr, align 4
  store float %friction2, ptr %friction2.addr, align 4
  %0 = load float, ptr %friction1.addr, align 4
  %1 = load float, ptr %friction2.addr, align 4
  %mul = fmul float %0, %1
  %call = call float @sqrtf(float noundef %mul) #6
  ret float %call
}

; Function Attrs: mustprogress uwtable
define void @_ZN9b2ContactC2EP9b2FixtureiS1_i(ptr noundef nonnull align 8 dereferenceable(208) %this, ptr noundef %fA, i32 noundef %indexA, ptr noundef %fB, i32 noundef %indexB) unnamed_addr #0 align 2 {
entry:
  %this.addr = alloca ptr, align 8
  %fA.addr = alloca ptr, align 8
  %indexA.addr = alloca i32, align 4
  %fB.addr = alloca ptr, align 8
  %indexB.addr = alloca i32, align 4
  store ptr %this, ptr %this.addr, align 8
  store ptr %fA, ptr %fA.addr, align 8
  store i32 %indexA, ptr %indexA.addr, align 4
  store ptr %fB, ptr %fB.addr, align 8
  store i32 %indexB, ptr %indexB.addr, align 4
  %this1 = load ptr, ptr %this.addr, align 8
  store ptr getelementptr inbounds ({ [5 x ptr] }, ptr @_ZTV9b2Contact, i32 0, i32 0, i32 2), ptr %this1, align 8
  %m_flags = getelementptr inbounds %class.b2Contact, ptr %this1, i32 0, i32 1
  store i32 4, ptr %m_flags, align 8
  %0 = load ptr, ptr %fA.addr, align 8
  %m_fixtureA = getelementptr inbounds %class.b2Contact, ptr %this1, i32 0, i32 6
  store ptr %0, ptr %m_fixtureA, align 8
  %1 = load ptr, ptr %fB.addr, align 8
  %m_fixtureB = getelementptr inbounds %class.b2Contact, ptr %this1, i32 0, i32 7
  store ptr %1, ptr %m_fixtureB, align 8
  %2 = load i32, ptr %indexA.addr, align 4
  %m_indexA = getelementptr inbounds %class.b2Contact, ptr %this1, i32 0, i32 8
  store i32 %2, ptr %m_indexA, align 8
  %3 = load i32, ptr %indexB.addr, align 4
  %m_indexB = getelementptr inbounds %class.b2Contact, ptr %this1, i32 0, i32 9
  store i32 %3, ptr %m_indexB, align 4
  %m_manifold2 = getelementptr inbounds %class.b2Contact, ptr %this1, i32 0, i32 10
  %pointCount = getelementptr inbounds %struct.b2Manifold, ptr %m_manifold2, i32 0, i32 4
  store i32 0, ptr %pointCount, align 4
  %m_prev = getelementptr inbounds %class.b2Contact, ptr %this1, i32 0, i32 2
  store ptr null, ptr %m_prev, align 8
  %m_next = getelementptr inbounds %class.b2Contact, ptr %this1, i32 0, i32 3
  store ptr null, ptr %m_next, align 8
  %m_nodeA3 = getelementptr inbounds %class.b2Contact, ptr %this1, i32 0, i32 4
  %contact = getelementptr inbounds %struct.b2ContactEdge, ptr %m_nodeA3, i32 0, i32 1
  store ptr null, ptr %contact, align 8
  %m_nodeA4 = getelementptr inbounds %class.b2Contact, ptr %this1, i32 0, i32 4
  %prev = getelementptr inbounds %struct.b2ContactEdge, ptr %m_nodeA4, i32 0, i32 2
  store ptr null, ptr %prev, align 8
  %m_nodeA5 = getelementptr inbounds %class.b2Contact, ptr %this1, i32 0, i32 4
  %next = getelementptr inbounds %struct.b2ContactEdge, ptr %m_nodeA5, i32 0, i32 3
  store ptr null, ptr %next, align 8
  %m_nodeA6 = getelementptr inbounds %class.b2Contact, ptr %this1, i32 0, i32 4
  %other = getelementptr inbounds %struct.b2ContactEdge, ptr %m_nodeA6, i32 0, i32 0
  store ptr null, ptr %other, align 8
  %m_nodeB7 = getelementptr inbounds %class.b2Contact, ptr %this1, i32 0, i32 5
  %contact8 = getelementptr inbounds %struct.b2ContactEdge, ptr %m_nodeB7, i32 0, i32 1
  store ptr null, ptr %contact8, align 8
  %m_nodeB9 = getelementptr inbounds %class.b2Contact, ptr %this1, i32 0, i32 5
  %prev10 = getelementptr inbounds %struct.b2ContactEdge, ptr %m_nodeB9, i32 0, i32 2
  store ptr null, ptr %prev10, align 8
  %m_nodeB11 = getelementptr inbounds %class.b2Contact, ptr %this1, i32 0, i32 5
  %next12 = getelementptr inbounds %struct.b2ContactEdge, ptr %m_nodeB11, i32 0, i32 3
  store ptr null, ptr %next12, align 8
  %m_nodeB13 = getelementptr inbounds %class.b2Contact, ptr %this1, i32 0, i32 5
  %other14 = getelementptr inbounds %struct.b2ContactEdge, ptr %m_nodeB13, i32 0, i32 0
  store ptr null, ptr %other14, align 8
  %m_toiCount = getelementptr inbounds %class.b2Contact, ptr %this1, i32 0, i32 11
  store i32 0, ptr %m_toiCount, align 8
  %m_fixtureA15 = getelementptr inbounds %class.b2Contact, ptr %this1, i32 0, i32 6
  %4 = load ptr, ptr %m_fixtureA15, align 8
  %m_friction = getelementptr inbounds %class.b2Fixture, ptr %4, i32 0, i32 4
  %5 = load float, ptr %m_friction, align 8
  %m_fixtureB16 = getelementptr inbounds %class.b2Contact, ptr %this1, i32 0, i32 7
  %6 = load ptr, ptr %m_fixtureB16, align 8
  %m_friction17 = getelementptr inbounds %class.b2Fixture, ptr %6, i32 0, i32 4
  %7 = load float, ptr %m_friction17, align 8
  %call = call noundef float @_Z13b2MixFrictionff(float noundef %5, float noundef %7)
  %m_friction18 = getelementptr inbounds %class.b2Contact, ptr %this1, i32 0, i32 13
  store float %call, ptr %m_friction18, align 8
  %m_fixtureA19 = getelementptr inbounds %class.b2Contact, ptr %this1, i32 0, i32 6
  %8 = load ptr, ptr %m_fixtureA19, align 8
  %m_restitution = getelementptr inbounds %class.b2Fixture, ptr %8, i32 0, i32 5
  %9 = load float, ptr %m_restitution, align 4
  %m_fixtureB20 = getelementptr inbounds %class.b2Contact, ptr %this1, i32 0, i32 7
  %10 = load ptr, ptr %m_fixtureB20, align 8
  %m_restitution21 = getelementptr inbounds %class.b2Fixture, ptr %10, i32 0, i32 5
  %11 = load float, ptr %m_restitution21, align 4
  %call22 = call noundef float @_Z16b2MixRestitutionff(float noundef %9, float noundef %11)
  %m_restitution23 = getelementptr inbounds %class.b2Contact, ptr %this1, i32 0, i32 14
  store float %call22, ptr %m_restitution23, align 4
  %m_fixtureA24 = getelementptr inbounds %class.b2Contact, ptr %this1, i32 0, i32 6
  %12 = load ptr, ptr %m_fixtureA24, align 8
  %m_restitutionThreshold = getelementptr inbounds %class.b2Fixture, ptr %12, i32 0, i32 6
  %13 = load float, ptr %m_restitutionThreshold, align 8
  %m_fixtureB25 = getelementptr inbounds %class.b2Contact, ptr %this1, i32 0, i32 7
  %14 = load ptr, ptr %m_fixtureB25, align 8
  %m_restitutionThreshold26 = getelementptr inbounds %class.b2Fixture, ptr %14, i32 0, i32 6
  %15 = load float, ptr %m_restitutionThreshold26, align 8
  %call27 = call noundef float @_Z25b2MixRestitutionThresholdff(float noundef %13, float noundef %15)
  %m_restitutionThreshold28 = getelementptr inbounds %class.b2Contact, ptr %this1, i32 0, i32 15
  store float %call27, ptr %m_restitutionThreshold28, align 8
  %m_tangentSpeed = getelementptr inbounds %class.b2Contact, ptr %this1, i32 0, i32 16
  store float 0.000000e+00, ptr %m_tangentSpeed, align 4
  ret void
}