; Function Attrs: mustprogress nofree nounwind willreturn memory(readwrite, inaccessiblemem: write) uwtable
define void @_ZN9b2ContactC2EP9b2FixtureiS1_i(ptr nocapture noundef nonnull align 8 dereferenceable(208) %this, ptr noundef %fA, i32 noundef %indexA, ptr noundef %fB, i32 noundef %indexB) unnamed_addr #3 align 2 {
entry:
  store ptr getelementptr inbounds ({ [5 x ptr] }, ptr @_ZTV9b2Contact, i64 0, i32 0, i64 2), ptr %this, align 8
  %m_flags = getelementptr inbounds i8, ptr %this, i64 8
  store i32 4, ptr %m_flags, align 8
  %m_fixtureA = getelementptr inbounds i8, ptr %this, i64 96
  store ptr %fA, ptr %m_fixtureA, align 8
  %m_fixtureB = getelementptr inbounds i8, ptr %this, i64 104
  store ptr %fB, ptr %m_fixtureB, align 8
  %m_indexA = getelementptr inbounds i8, ptr %this, i64 112
  store i32 %indexA, ptr %m_indexA, align 8
  %m_indexB = getelementptr inbounds i8, ptr %this, i64 116
  store i32 %indexB, ptr %m_indexB, align 4
  %pointCount = getelementptr inbounds i8, ptr %this, i64 180
  store i32 0, ptr %pointCount, align 4
  %m_prev = getelementptr inbounds i8, ptr %this, i64 16
  %m_toiCount = getelementptr inbounds i8, ptr %this, i64 184
  store i32 0, ptr %m_toiCount, align 8
  %m_friction = getelementptr inbounds i8, ptr %fA, i64 32
  tail call void @llvm.memset.p0.i64(ptr noundef nonnull align 8 dereferenceable(80) %m_prev, i8 0, i64 80, i1 false)
  %0 = load float, ptr %m_friction, align 8
  %m_friction17 = getelementptr inbounds i8, ptr %fB, i64 32
  %1 = load float, ptr %m_friction17, align 8
  %mul.i = fmul float %0, %1
  %call.i = tail call noundef float @sqrtf(float noundef %mul.i) #9
  %m_friction18 = getelementptr inbounds i8, ptr %this, i64 192
  store float %call.i, ptr %m_friction18, align 8
  %2 = load ptr, ptr %m_fixtureA, align 8
  %m_restitution = getelementptr inbounds i8, ptr %2, i64 36
  %3 = load float, ptr %m_restitution, align 4
  %4 = load ptr, ptr %m_fixtureB, align 8
  %m_restitution21 = getelementptr inbounds i8, ptr %4, i64 36
  %5 = load float, ptr %m_restitution21, align 4
  %cmp.i = fcmp ogt float %3, %5
  %cond.i = select i1 %cmp.i, float %3, float %5
  %m_restitution23 = getelementptr inbounds i8, ptr %this, i64 196
  store float %cond.i, ptr %m_restitution23, align 4
  %m_restitutionThreshold = getelementptr inbounds i8, ptr %2, i64 40
  %6 = load float, ptr %m_restitutionThreshold, align 8
  %m_restitutionThreshold26 = getelementptr inbounds i8, ptr %4, i64 40
  %7 = load float, ptr %m_restitutionThreshold26, align 8
  %cmp.i1 = fcmp olt float %6, %7
  %cond.i2 = select i1 %cmp.i1, float %6, float %7
  %m_restitutionThreshold28 = getelementptr inbounds i8, ptr %this, i64 200
  store float %cond.i2, ptr %m_restitutionThreshold28, align 8
  %m_tangentSpeed = getelementptr inbounds i8, ptr %this, i64 204
  store float 0.000000e+00, ptr %m_tangentSpeed, align 4
  ret void
}